; Function Attrs: mustprogress nofree norecurse nosync nounwind willreturn memory(read, inaccessiblemem: none) uwtable
define hidden noundef i32 @_ZNK4cvc58internal4prop13CadicalSolver17getAssertionLevelEv(ptr nocapture noundef nonnull readonly align 8 dereferenceable(144) %this) unnamed_addr #13 align 2 {
entry:
  %d_propagator = getelementptr inbounds i8, ptr %this, i64 56
  %0 = load ptr, ptr %d_propagator, align 8
  %d_activation_literals.i = getelementptr inbounds i8, ptr %0, i64 112
  %_M_finish.i.i = getelementptr inbounds i8, ptr %0, i64 120
  %1 = load ptr, ptr %_M_finish.i.i, align 8
  %2 = load ptr, ptr %d_activation_literals.i, align 8
  %sub.ptr.lhs.cast.i.i = ptrtoint ptr %1 to i64
  %sub.ptr.rhs.cast.i.i = ptrtoint ptr %2 to i64
  %sub.ptr.sub.i.i = sub i64 %sub.ptr.lhs.cast.i.i, %sub.ptr.rhs.cast.i.i
  %sub.ptr.div.i.i = lshr exact i64 %sub.ptr.sub.i.i, 3
  %conv = trunc i64 %sub.ptr.div.i.i to i32
  ret i32 %conv
}